target datalayout = "e-m:e-p270:32:32-p271:32:32-p272:64:64-i64:64-i128:128-f80:128-n8:16:32:64-S128"
target triple = "x86_64-pc-linux-gnu"

%struct.H5FL_reg_head_t = type { i8, i32, i32, ptr, i64, ptr }
%struct.H5D_farray_ctx_ud_t = type { ptr, i32 }
%struct.H5O_layout_chunk_t = type { i32, i8, i32, [33 x i32], i32, i32, i64, i64, [33 x i64], [33 x i64], [33 x i64], [33 x i64], %union.anon.0 }
%union.anon.0 = type { %struct.H5O_layout_chunk_earray_t }
%struct.H5O_layout_chunk_earray_t = type { %struct.anon.1, i32, [33 x i32], [33 x i64], [33 x i64] }
%struct.anon.1 = type { i8, i8, i8, i8, i8 }
%struct.H5O_loc_t = type { ptr, i64, i8 }
%struct.H5O_layout_t = type { i32, i32, ptr, %union.anon, %struct.H5O_storage_t }
%union.anon = type { %struct.H5O_layout_chunk_t }
%struct.H5O_storage_t = type { i32, %union.anon.3 }
%union.anon.3 = type { %struct.H5O_storage_virtual_t }
%struct.H5O_storage_virtual_t = type { %struct.H5HG_t, i64, ptr, i64, [32 x i64], i32, i64, i64, i64, i8 }
%struct.H5HG_t = type { i64, i64 }

@.str.2 = private unnamed_addr constant [103 x i8] c"generated/home/dtcxzyw/WorkSpace/Projects/compilers/llvm-opt-benchmark/bench/hdf5/hdf5/src/H5Dfarray.c\00", align 1
@H5E_DATASET_g = external global i64, align 8
@H5E_CANTALLOC_g = external global i64, align 8
@.str.3 = private unnamed_addr constant [51 x i8] c"can't allocate fixed array client callback context\00", align 1
@H5_H5D_farray_ctx_ud_t_reg_free_list = internal global %struct.H5FL_reg_head_t { i8 0, i32 0, i32 0, ptr @.str.11, i64 16, ptr null }, align 8
@__func__.H5D__farray_crt_dbg_context = private unnamed_addr constant [28 x i8] c"H5D__farray_crt_dbg_context\00", align 1
@H5E_CANTOPENOBJ_g = external global i64, align 8
@.str.8 = private unnamed_addr constant [25 x i8] c"can't open object header\00", align 1
@H5E_CANTGET_g = external global i64, align 8
@.str.9 = private unnamed_addr constant [22 x i8] c"can't get layout info\00", align 1
@H5E_CANTCLOSEOBJ_g = external global i64, align 8
@.str.10 = private unnamed_addr constant [26 x i8] c"can't close object header\00", align 1

; Function Attrs: nounwind uwtable
define internal ptr @H5D__farray_crt_dbg_context(ptr noundef %0, i64 noundef %1) #0 {
  %3 = alloca ptr, align 8
  %4 = alloca i64, align 8
  %5 = alloca ptr, align 8
  %6 = alloca %struct.H5O_loc_t, align 8
  %7 = alloca i8, align 1
  %8 = alloca %struct.H5O_layout_t, align 8
  %9 = alloca ptr, align 8
  %10 = alloca i8, align 1
  store ptr %0, ptr %3, align 8
  store i64 %1, ptr %4, align 8
  store ptr null, ptr %5, align 8
  store i8 0, ptr %7, align 1
  store ptr null, ptr %9, align 8
  store i8 0, ptr %10, align 1
  %11 = call noalias ptr @H5FL_reg_malloc(ptr noundef @H5_H5D_farray_ctx_ud_t_reg_free_list)
  store ptr %11, ptr %5, align 8
  %12 = icmp eq ptr null, %11
  br i1 %12, label %13, label %28

13:                                               ; preds = %2
  br label %14

14:                                               ; preds = %13
  br label %15

15:                                               ; preds = %14
  br label %16

16:                                               ; preds = %15
  %17 = load i64, ptr @H5E_DATASET_g, align 8
  %18 = load i64, ptr @H5E_CANTALLOC_g, align 8
  %19 = call i32 (ptr, ptr, i32, i64, i64, ptr, ...) @H5E_printf_stack(ptr noundef @.str.2, ptr noundef @__func__.H5D__farray_crt_dbg_context, i32 noundef 439, i64 noundef %17, i64 noundef %18, ptr noundef @.str.3)
  br label %20

20:                                               ; preds = %16
  store i8 1, ptr %10, align 1
  %21 = load i8, ptr %10, align 1
  %22 = trunc i8 %21 to i1
  %23 = zext i1 %22 to i8
  store i8 %23, ptr %10, align 1
  br label %24

24:                                               ; preds = %20
  br label %25

25:                                               ; preds = %24
  store ptr null, ptr %9, align 8
  br label %97

26:                                               ; No predecessors!
  br label %27

27:                                               ; preds = %26
  br label %28

28:                                               ; preds = %27, %2
  %29 = call i32 @H5O_loc_reset(ptr noundef %6)
  %30 = load ptr, ptr %3, align 8
  %31 = getelementptr inbounds %struct.H5O_loc_t, ptr %6, i32 0, i32 0
  store ptr %30, ptr %31, align 8
  %32 = load i64, ptr %4, align 8
  %33 = getelementptr inbounds %struct.H5O_loc_t, ptr %6, i32 0, i32 1
  store i64 %32, ptr %33, align 8
  %34 = call i32 @H5O_open(ptr noundef %6)
  %35 = icmp slt i32 %34, 0
  br i1 %35, label %36, label %51

36:                                               ; preds = %28
  br label %37

37:                                               ; preds = %36
  br label %38

38:                                               ; preds = %37
  br label %39

39:                                               ; preds = %38
  %40 = load i64, ptr @H5E_DATASET_g, align 8
  %41 = load i64, ptr @H5E_CANTOPENOBJ_g, align 8
  %42 = call i32 (ptr, ptr, i32, i64, i64, ptr, ...) @H5E_printf_stack(ptr noundef @.str.2, ptr noundef @__func__.H5D__farray_crt_dbg_context, i32 noundef 448, i64 noundef %40, i64 noundef %41, ptr noundef @.str.8)
  br label %43

43:                                               ; preds = %39
  store i8 1, ptr %10, align 1
  %44 = load i8, ptr %10, align 1
  %45 = trunc i8 %44 to i1
  %46 = zext i1 %45 to i8
  store i8 %46, ptr %10, align 1
  br label %47

47:                                               ; preds = %43
  br label %48

48:                                               ; preds = %47
  store ptr null, ptr %9, align 8
  br label %97

49:                                               ; No predecessors!
  br label %50

50:                                               ; preds = %49
  br label %51

51:                                               ; preds = %50, %28
  store i8 1, ptr %7, align 1
  %52 = call ptr @H5O_msg_read(ptr noundef %6, i32 noundef 8, ptr noundef %8)
  %53 = icmp eq ptr null, %52
  br i1 %53, label %54, label %69

54:                                               ; preds = %51
  br label %55

55:                                               ; preds = %54
  br label %56

56:                                               ; preds = %55
  br label %57

57:                                               ; preds = %56
  %58 = load i64, ptr @H5E_DATASET_g, align 8
  %59 = load i64, ptr @H5E_CANTGET_g, align 8
  %60 = call i32 (ptr, ptr, i32, i64, i64, ptr, ...) @H5E_printf_stack(ptr noundef @.str.2, ptr noundef @__func__.H5D__farray_crt_dbg_context, i32 noundef 453, i64 noundef %58, i64 noundef %59, ptr noundef @.str.9)
  br label %61

61:                                               ; preds = %57
  store i8 1, ptr %10, align 1
  %62 = load i8, ptr %10, align 1
  %63 = trunc i8 %62 to i1
  %64 = zext i1 %63 to i8
  store i8 %64, ptr %10, align 1
  br label %65

65:                                               ; preds = %61
  br label %66

66:                                               ; preds = %65
  store ptr null, ptr %9, align 8
  br label %97

67:                                               ; No predecessors!
  br label %68

68:                                               ; preds = %67
  br label %69

69:                                               ; preds = %68, %51
  %70 = call i32 @H5O_close(ptr noundef %6, ptr noundef null)
  %71 = icmp slt i32 %70, 0
  br i1 %71, label %72, label %87

72:                                               ; preds = %69
  br label %73

73:                                               ; preds = %72
  br label %74

74:                                               ; preds = %73
  br label %75

75:                                               ; preds = %74
  %76 = load i64, ptr @H5E_DATASET_g, align 8
  %77 = load i64, ptr @H5E_CANTCLOSEOBJ_g, align 8
  %78 = call i32 (ptr, ptr, i32, i64, i64, ptr, ...) @H5E_printf_stack(ptr noundef @.str.2, ptr noundef @__func__.H5D__farray_crt_dbg_context, i32 noundef 457, i64 noundef %76, i64 noundef %77, ptr noundef @.str.10)
  br label %79

79:                                               ; preds = %75
  store i8 1, ptr %10, align 1
  %80 = load i8, ptr %10, align 1
  %81 = trunc i8 %80 to i1
  %82 = zext i1 %81 to i8
  store i8 %82, ptr %10, align 1
  br label %83

83:                                               ; preds = %79
  br label %84

84:                                               ; preds = %83
  store ptr null, ptr %9, align 8
  br label %97

85:                                               ; No predecessors!
  br label %86

86:                                               ; preds = %85
  br label %87

87:                                               ; preds = %86, %69
  %88 = load ptr, ptr %3, align 8
  %89 = load ptr, ptr %5, align 8
  %90 = getelementptr inbounds %struct.H5D_farray_ctx_ud_t, ptr %89, i32 0, i32 0
  store ptr %88, ptr %90, align 8
  %91 = getelementptr inbounds %struct.H5O_layout_t, ptr %8, i32 0, i32 3
  %92 = getelementptr inbounds %struct.H5O_layout_chunk_t, ptr %91, i32 0, i32 5
  %93 = load i32, ptr %92, align 4
  %94 = load ptr, ptr %5, align 8
  %95 = getelementptr inbounds %struct.H5D_farray_ctx_ud_t, ptr %94, i32 0, i32 1
  store i32 %93, ptr %95, align 8
  %96 = load ptr, ptr %5, align 8
  store ptr %96, ptr %9, align 8
  br label %97

97:                                               ; preds = %87, %84, %66, %48, %25
  %98 = load ptr, ptr %9, align 8
  %99 = icmp eq ptr %98, null
  br i1 %99, label %100, label %127

100:                                              ; preds = %97
  %101 = load ptr, ptr %5, align 8
  %102 = icmp ne ptr %101, null
  br i1 %102, label %103, label %106

103:                                              ; preds = %100
  %104 = load ptr, ptr %5, align 8
  %105 = call ptr @H5FL_reg_free(ptr noundef @H5_H5D_farray_ctx_ud_t_reg_free_list, ptr noundef %104)
  store ptr %105, ptr %5, align 8
  br label %106

106:                                              ; preds = %103, %100
  %107 = load i8, ptr %7, align 1
  %108 = trunc i8 %107 to i1
  br i1 %108, label %109, label %126

109:                                              ; preds = %106
  %110 = call i32 @H5O_close(ptr noundef %6, ptr noundef null)
  %111 = icmp slt i32 %110, 0
  br i1 %111, label %112, label %125

112:                                              ; preds = %109
  br label %113

113:                                              ; preds = %112
  br label %114

114:                                              ; preds = %113
  br label %115

115:                                              ; preds = %114
  %116 = load i64, ptr @H5E_DATASET_g, align 8
  %117 = load i64, ptr @H5E_CANTCLOSEOBJ_g, align 8
  %118 = call i32 (ptr, ptr, i32, i64, i64, ptr, ...) @H5E_printf_stack(ptr noundef @.str.2, ptr noundef @__func__.H5D__farray_crt_dbg_context, i32 noundef 476, i64 noundef %116, i64 noundef %117, ptr noundef @.str.10)
  br label %119

119:                                              ; preds = %115
  store i8 1, ptr %10, align 1
  %120 = load i8, ptr %10, align 1
  %121 = trunc i8 %120 to i1
  %122 = zext i1 %121 to i8
  store i8 %122, ptr %10, align 1
  br label %123

123:                                              ; preds = %119
  store ptr null, ptr %9, align 8
  br label %124

124:                                              ; preds = %123
  br label %125

125:                                              ; preds = %124, %109
  br label %126

126:                                              ; preds = %125, %106
  br label %127

127:                                              ; preds = %126, %97
  %128 = load ptr, ptr %9, align 8
  ret ptr %128
}