; Function Attrs: nounwind uwtable
define internal ptr @H5D__farray_crt_dbg_context(ptr noundef %0, i64 noundef %1) #1 {
  %3 = alloca %struct.H5O_loc_t, align 8
  %4 = alloca %struct.H5O_layout_t, align 8
  %5 = tail call noalias ptr @H5FL_reg_malloc(ptr noundef nonnull @H5_H5D_farray_ctx_ud_t_reg_free_list) #11
  %6 = icmp eq ptr %5, null
  br i1 %6, label %.thread26, label %7

7:                                                ; preds = %2
  %8 = call i32 @H5O_loc_reset(ptr noundef nonnull %3) #11
  store ptr %0, ptr %3, align 8
  %9 = getelementptr inbounds i8, ptr %3, i64 8
  store i64 %1, ptr %9, align 8
  %10 = call i32 @H5O_open(ptr noundef nonnull %3) #11
  %11 = icmp slt i32 %10, 0
  br i1 %11, label %33, label %12

12:                                               ; preds = %7
  %13 = call ptr @H5O_msg_read(ptr noundef nonnull %3, i32 noundef 8, ptr noundef nonnull %4) #11
  %14 = icmp eq ptr %13, null
  br i1 %14, label %15, label %19

15:                                               ; preds = %12
  %16 = load i64, ptr @H5E_DATASET_g, align 8
  %17 = load i64, ptr @H5E_CANTGET_g, align 8
  %18 = call i32 (ptr, ptr, i32, i64, i64, ptr, ...) @H5E_printf_stack(ptr noundef nonnull @.str.2, ptr noundef nonnull @__func__.H5D__farray_crt_dbg_context, i32 noundef 453, i64 noundef %16, i64 noundef %17, ptr noundef nonnull @.str.9) #11
  br label %38

19:                                               ; preds = %12
  %20 = call i32 @H5O_close(ptr noundef nonnull %3, ptr noundef null) #11
  %21 = icmp slt i32 %20, 0
  br i1 %21, label %22, label %26

22:                                               ; preds = %19
  %23 = load i64, ptr @H5E_DATASET_g, align 8
  %24 = load i64, ptr @H5E_CANTCLOSEOBJ_g, align 8
  %25 = call i32 (ptr, ptr, i32, i64, i64, ptr, ...) @H5E_printf_stack(ptr noundef nonnull @.str.2, ptr noundef nonnull @__func__.H5D__farray_crt_dbg_context, i32 noundef 457, i64 noundef %23, i64 noundef %24, ptr noundef nonnull @.str.10) #11
  br label %38

26:                                               ; preds = %19
  store ptr %0, ptr %5, align 8
  %27 = getelementptr inbounds i8, ptr %4, i64 164
  %28 = load i32, ptr %27, align 4
  %29 = getelementptr inbounds i8, ptr %5, i64 8
  store i32 %28, ptr %29, align 8
  br label %46

.thread26:                                        ; preds = %2
  %30 = load i64, ptr @H5E_DATASET_g, align 8
  %31 = load i64, ptr @H5E_CANTALLOC_g, align 8
  %32 = tail call i32 (ptr, ptr, i32, i64, i64, ptr, ...) @H5E_printf_stack(ptr noundef nonnull @.str.2, ptr noundef nonnull @__func__.H5D__farray_crt_dbg_context, i32 noundef 439, i64 noundef %30, i64 noundef %31, ptr noundef nonnull @.str.3) #11
  br label %46

33:                                               ; preds = %7
  %34 = load i64, ptr @H5E_DATASET_g, align 8
  %35 = load i64, ptr @H5E_CANTOPENOBJ_g, align 8
  %36 = call i32 (ptr, ptr, i32, i64, i64, ptr, ...) @H5E_printf_stack(ptr noundef nonnull @.str.2, ptr noundef nonnull @__func__.H5D__farray_crt_dbg_context, i32 noundef 448, i64 noundef %34, i64 noundef %35, ptr noundef nonnull @.str.8) #11
  %37 = call ptr @H5FL_reg_free(ptr noundef nonnull @H5_H5D_farray_ctx_ud_t_reg_free_list, ptr noundef nonnull %5) #11
  br label %46

38:                                               ; preds = %15, %22
  %39 = call ptr @H5FL_reg_free(ptr noundef nonnull @H5_H5D_farray_ctx_ud_t_reg_free_list, ptr noundef nonnull %5) #11
  %40 = call i32 @H5O_close(ptr noundef nonnull %3, ptr noundef null) #11
  %41 = icmp slt i32 %40, 0
  br i1 %41, label %42, label %46

42:                                               ; preds = %38
  %43 = load i64, ptr @H5E_DATASET_g, align 8
  %44 = load i64, ptr @H5E_CANTCLOSEOBJ_g, align 8
  %45 = call i32 (ptr, ptr, i32, i64, i64, ptr, ...) @H5E_printf_stack(ptr noundef nonnull @.str.2, ptr noundef nonnull @__func__.H5D__farray_crt_dbg_context, i32 noundef 476, i64 noundef %43, i64 noundef %44, ptr noundef nonnull @.str.10) #11
  br label %46

46:                                               ; preds = %33, %.thread26, %26, %42, %38
  %.1 = phi ptr [ null, %42 ], [ null, %38 ], [ null, %33 ], [ %5, %26 ], [ null, %.thread26 ]
  ret ptr %.1
}